target datalayout = "e-m:e-p270:32:32-p271:32:32-p272:64:64-i64:64-i128:128-f80:128-n8:16:32:64-S128"
target triple = "x86_64-pc-linux-gnu"

%"class.base::BasicStringPiece.0" = type { ptr, i64 }

; Function Attrs: inlinehint mustprogress nounwind uwtable
define linkonce_odr void @_ZN9__gnu_cxx5__ops20__iter_equal_to_iterEv() #7 comdat {
  ret void
}

; Function Attrs: inlinehint mustprogress uwtable
define linkonce_odr noundef ptr @_ZSt6searchIPKtS1_ET_S2_S2_T0_S3_(ptr noundef %0, ptr noundef %1, ptr noundef %2, ptr noundef %3) #2 comdat {
  %5 = alloca ptr, align 8
  %6 = alloca ptr, align 8
  %7 = alloca ptr, align 8
  %8 = alloca ptr, align 8
  store ptr %0, ptr %5, align 8, !tbaa !49
  store ptr %1, ptr %6, align 8, !tbaa !49
  store ptr %2, ptr %7, align 8, !tbaa !49
  store ptr %3, ptr %8, align 8, !tbaa !49
  %9 = load ptr, ptr %5, align 8, !tbaa !49
  %10 = load ptr, ptr %6, align 8, !tbaa !49
  %11 = load ptr, ptr %7, align 8, !tbaa !49
  %12 = load ptr, ptr %8, align 8, !tbaa !49
  call void @_ZN9__gnu_cxx5__ops20__iter_equal_to_iterEv()
  %13 = call noundef ptr @_ZSt8__searchIPKtS1_N9__gnu_cxx5__ops19_Iter_equal_to_iterEET_S5_S5_T0_S6_T1_(ptr noundef %9, ptr noundef %10, ptr noundef %11, ptr noundef %12)
  ret ptr %13
}

; Function Attrs: mustprogress nounwind uwtable
define weak_odr noundef ptr @_ZNK4base16BasicStringPieceINSt7__cxx1112basic_stringItNS_20string16_char_traitsESaItEEEE3endEv(ptr noundef nonnull align 8 dereferenceable(16) %0) #0 comdat align 2 {
  %2 = alloca ptr, align 8
  store ptr %0, ptr %2, align 8, !tbaa !43
  %3 = load ptr, ptr %2, align 8
  %4 = getelementptr inbounds nuw %"class.base::BasicStringPiece.0", ptr %3, i32 0, i32 0
  %5 = load ptr, ptr %4, align 8, !tbaa !45
  %6 = getelementptr inbounds nuw %"class.base::BasicStringPiece.0", ptr %3, i32 0, i32 1
  %7 = load i64, ptr %6, align 8, !tbaa !48
  %8 = getelementptr inbounds nuw i16, ptr %5, i64 %7
  ret ptr %8
}

; Function Attrs: mustprogress nounwind uwtable
define weak_odr noundef ptr @_ZNK4base16BasicStringPieceINSt7__cxx1112basic_stringItNS_20string16_char_traitsESaItEEEE5beginEv(ptr noundef nonnull align 8 dereferenceable(16) %0) #0 comdat align 2 {
  %2 = alloca ptr, align 8
  store ptr %0, ptr %2, align 8, !tbaa !43
  %3 = load ptr, ptr %2, align 8
  %4 = getelementptr inbounds nuw %"class.base::BasicStringPiece.0", ptr %3, i32 0, i32 0
  %5 = load ptr, ptr %4, align 8, !tbaa !45
  ret ptr %5
}

; Function Attrs: mustprogress nounwind uwtable
define weak_odr noundef i64 @_ZNK4base16BasicStringPieceINSt7__cxx1112basic_stringItNS_20string16_char_traitsESaItEEEE4sizeEv(ptr noundef nonnull align 8 dereferenceable(16) %0) #0 comdat align 2 {
  %2 = alloca ptr, align 8
  store ptr %0, ptr %2, align 8, !tbaa !43
  %3 = load ptr, ptr %2, align 8
  %4 = getelementptr inbounds nuw %"class.base::BasicStringPiece.0", ptr %3, i32 0, i32 1
  %5 = load i64, ptr %4, align 8, !tbaa !48
  ret i64 %5
}

; Function Attrs: mustprogress uwtable
define linkonce_odr noundef i64 @_ZN4base8internal5findTINSt7__cxx1112basic_stringItNS_20string16_char_traitsESaItEEEEEmRKNS_16BasicStringPieceIT_EESB_m(ptr noundef nonnull align 8 dereferenceable(16) %0, ptr noundef nonnull align 8 dereferenceable(16) %1, i64 noundef %2) #1 comdat {
  %4 = alloca i64, align 8
  %5 = alloca ptr, align 8
  %6 = alloca ptr, align 8
  %7 = alloca i64, align 8
  %8 = alloca ptr, align 8
  %9 = alloca i64, align 8
  store ptr %0, ptr %5, align 8, !tbaa !43
  store ptr %1, ptr %6, align 8, !tbaa !43
  store i64 %2, ptr %7, align 8, !tbaa !19
  %10 = load i64, ptr %7, align 8, !tbaa !19
  %11 = load ptr, ptr %5, align 8, !tbaa !43
  %12 = call noundef i64 @_ZNK4base16BasicStringPieceINSt7__cxx1112basic_stringItNS_20string16_char_traitsESaItEEEE4sizeEv(ptr noundef nonnull align 8 dereferenceable(16) %11)
  %13 = icmp ugt i64 %10, %12
  br i1 %13, label %14, label %15

14:                                               ; preds = %3
  store i64 -1, ptr %4, align 8
  br label %46

15:                                               ; preds = %3
  call void @llvm.lifetime.start.p0(i64 8, ptr %8) #14
  %16 = load ptr, ptr %5, align 8, !tbaa !43
  %17 = call noundef ptr @_ZNK4base16BasicStringPieceINSt7__cxx1112basic_stringItNS_20string16_char_traitsESaItEEEE5beginEv(ptr noundef nonnull align 8 dereferenceable(16) %16)
  %18 = load i64, ptr %7, align 8, !tbaa !19
  %19 = getelementptr inbounds nuw i16, ptr %17, i64 %18
  %20 = load ptr, ptr %5, align 8, !tbaa !43
  %21 = call noundef ptr @_ZNK4base16BasicStringPieceINSt7__cxx1112basic_stringItNS_20string16_char_traitsESaItEEEE3endEv(ptr noundef nonnull align 8 dereferenceable(16) %20)
  %22 = load ptr, ptr %6, align 8, !tbaa !43
  %23 = call noundef ptr @_ZNK4base16BasicStringPieceINSt7__cxx1112basic_stringItNS_20string16_char_traitsESaItEEEE5beginEv(ptr noundef nonnull align 8 dereferenceable(16) %22)
  %24 = load ptr, ptr %6, align 8, !tbaa !43
  %25 = call noundef ptr @_ZNK4base16BasicStringPieceINSt7__cxx1112basic_stringItNS_20string16_char_traitsESaItEEEE3endEv(ptr noundef nonnull align 8 dereferenceable(16) %24)
  %26 = call noundef ptr @_ZSt6searchIPKtS1_ET_S2_S2_T0_S3_(ptr noundef %19, ptr noundef %21, ptr noundef %23, ptr noundef %25)
  store ptr %26, ptr %8, align 8, !tbaa !49
  call void @llvm.lifetime.start.p0(i64 8, ptr %9) #14
  %27 = load ptr, ptr %8, align 8, !tbaa !49
  %28 = load ptr, ptr %5, align 8, !tbaa !43
  %29 = call noundef ptr @_ZNK4base16BasicStringPieceINSt7__cxx1112basic_stringItNS_20string16_char_traitsESaItEEEE5beginEv(ptr noundef nonnull align 8 dereferenceable(16) %28)
  %30 = ptrtoint ptr %27 to i64
  %31 = ptrtoint ptr %29 to i64
  %32 = sub i64 %30, %31
  %33 = sdiv exact i64 %32, 2
  store i64 %33, ptr %9, align 8, !tbaa !19
  %34 = load i64, ptr %9, align 8, !tbaa !19
  %35 = load ptr, ptr %6, align 8, !tbaa !43
  %36 = call noundef i64 @_ZNK4base16BasicStringPieceINSt7__cxx1112basic_stringItNS_20string16_char_traitsESaItEEEE4sizeEv(ptr noundef nonnull align 8 dereferenceable(16) %35)
  %37 = add i64 %34, %36
  %38 = load ptr, ptr %5, align 8, !tbaa !43
  %39 = call noundef i64 @_ZNK4base16BasicStringPieceINSt7__cxx1112basic_stringItNS_20string16_char_traitsESaItEEEE4sizeEv(ptr noundef nonnull align 8 dereferenceable(16) %38)
  %40 = icmp ule i64 %37, %39
  br i1 %40, label %41, label %43

41:                                               ; preds = %15
  %42 = load i64, ptr %9, align 8, !tbaa !19
  br label %44

43:                                               ; preds = %15
  br label %44

44:                                               ; preds = %43, %41
  %45 = phi i64 [ %42, %41 ], [ -1, %43 ]
  store i64 %45, ptr %4, align 8
  call void @llvm.lifetime.end.p0(i64 8, ptr %9) #14
  call void @llvm.lifetime.end.p0(i64 8, ptr %8) #14
  br label %46

46:                                               ; preds = %44, %14
  %47 = load i64, ptr %4, align 8
  ret i64 %47
}

; Function Attrs: mustprogress uwtable
define noundef i64 @_ZN4base8internal4findERKNS_16BasicStringPieceINSt7__cxx1112basic_stringItNS_20string16_char_traitsESaItEEEEES9_m(ptr noundef nonnull align 8 dereferenceable(16) %0, ptr noundef nonnull align 8 dereferenceable(16) %1, i64 noundef %2) #1 {
  %4 = alloca ptr, align 8
  %5 = alloca ptr, align 8
  %6 = alloca i64, align 8
  store ptr %0, ptr %4, align 8, !tbaa !43
  store ptr %1, ptr %5, align 8, !tbaa !43
  store i64 %2, ptr %6, align 8, !tbaa !19
  %7 = load ptr, ptr %4, align 8, !tbaa !43
  %8 = load ptr, ptr %5, align 8, !tbaa !43
  %9 = load i64, ptr %6, align 8, !tbaa !19
  %10 = call noundef i64 @_ZN4base8internal5findTINSt7__cxx1112basic_stringItNS_20string16_char_traitsESaItEEEEEmRKNS_16BasicStringPieceIT_EESB_m(ptr noundef nonnull align 8 dereferenceable(16) %7, ptr noundef nonnull align 8 dereferenceable(16) %8, i64 noundef %9)
  ret i64 %10
}