; Function Attrs: mustprogress uwtable
define noundef range(i64 -4611686018427387904, 4611686018427387904) i64 @_ZN4base8internal4findERKNS_16BasicStringPieceINSt7__cxx1112basic_stringItNS_20string16_char_traitsESaItEEEEES9_m(ptr noundef nonnull readonly align 8 captures(none) dereferenceable(16) %0, ptr noundef nonnull readonly align 8 captures(none) dereferenceable(16) %1, i64 noundef %2) local_unnamed_addr #1 {
  %4 = getelementptr inbounds nuw i8, ptr %0, i64 8
  %5 = load i64, ptr %4, align 8, !tbaa !38
  %6 = icmp ugt i64 %2, %5
  br i1 %6, label %_ZN4base8internal5findTINSt7__cxx1112basic_stringItNS_20string16_char_traitsESaItEEEEEmRKNS_16BasicStringPieceIT_EESB_m.exit, label %7

7:                                                ; preds = %3
  %8 = load ptr, ptr %0, align 8, !tbaa !35
  %9 = getelementptr inbounds nuw i16, ptr %8, i64 %2
  %10 = getelementptr inbounds nuw i16, ptr %8, i64 %5
  %11 = load ptr, ptr %1, align 8, !tbaa !35
  %12 = getelementptr inbounds nuw i8, ptr %1, i64 8
  %13 = load i64, ptr %12, align 8, !tbaa !38
  %14 = getelementptr inbounds nuw i16, ptr %11, i64 %13
  %15 = tail call noundef ptr @_ZSt8__searchIPKtS1_N9__gnu_cxx5__ops19_Iter_equal_to_iterEET_S5_S5_T0_S6_T1_(ptr noundef %9, ptr noundef %10, ptr noundef %11, ptr noundef %14)
  %16 = load ptr, ptr %0, align 8, !tbaa !35
  %17 = ptrtoint ptr %15 to i64
  %18 = ptrtoint ptr %16 to i64
  %19 = sub i64 %17, %18
  %20 = ashr exact i64 %19, 1
  %21 = load i64, ptr %12, align 8, !tbaa !38
  %22 = add i64 %20, %21
  %23 = load i64, ptr %4, align 8, !tbaa !38
  %.not.i = icmp ugt i64 %22, %23
  %24 = select i1 %.not.i, i64 -1, i64 %20
  br label %_ZN4base8internal5findTINSt7__cxx1112basic_stringItNS_20string16_char_traitsESaItEEEEEmRKNS_16BasicStringPieceIT_EESB_m.exit

_ZN4base8internal5findTINSt7__cxx1112basic_stringItNS_20string16_char_traitsESaItEEEEEmRKNS_16BasicStringPieceIT_EESB_m.exit: ; preds = %3, %7
  %.0.i = phi i64 [ %24, %7 ], [ -1, %3 ]
  ret i64 %.0.i
}